target datalayout = "e-m:e-p270:32:32-p271:32:32-p272:64:64-i64:64-i128:128-f80:128-n8:16:32:64-S128"
target triple = "x86_64-pc-linux-gnu"

%struct.PQExpBufferData = type { ptr, i64, i64 }
%struct._PQconninfoOption = type { ptr, ptr, ptr, ptr, ptr, ptr, i32 }
%struct._internalPQconninfoOption = type { ptr, ptr, ptr, ptr, ptr, ptr, i32, i64 }

@.str = private unnamed_addr constant [14 x i8] c"out of memory\00", align 1

; Function Attrs: nounwind uwtable
define void @PQconninfoFree(ptr noundef %0) #0 {
  %2 = alloca ptr, align 8
  %3 = alloca ptr, align 8
  store ptr %0, ptr %2, align 8
  %4 = load ptr, ptr %2, align 8
  %5 = icmp eq ptr %4, null
  br i1 %5, label %6, label %7

6:                                                ; preds = %1
  br label %24

7:                                                ; preds = %1
  call void @llvm.lifetime.start.p0(i64 8, ptr %3) #12
  %8 = load ptr, ptr %2, align 8
  store ptr %8, ptr %3, align 8
  br label %9

9:                                                ; preds = %19, %7
  %10 = load ptr, ptr %3, align 8
  %11 = getelementptr inbounds nuw %struct._PQconninfoOption, ptr %10, i32 0, i32 0
  %12 = load ptr, ptr %11, align 8
  %13 = icmp ne ptr %12, null
  br i1 %13, label %15, label %14

14:                                               ; preds = %9
  call void @llvm.lifetime.end.p0(i64 8, ptr %3) #12
  br label %22

15:                                               ; preds = %9
  %16 = load ptr, ptr %3, align 8
  %17 = getelementptr inbounds nuw %struct._PQconninfoOption, ptr %16, i32 0, i32 3
  %18 = load ptr, ptr %17, align 8
  call void @free(ptr noundef %18) #12
  br label %19

19:                                               ; preds = %15
  %20 = load ptr, ptr %3, align 8
  %21 = getelementptr inbounds nuw %struct._PQconninfoOption, ptr %20, i32 1
  store ptr %21, ptr %3, align 8
  br label %9, !llvm.loop !14

22:                                               ; preds = %14
  %23 = load ptr, ptr %2, align 8
  call void @free(ptr noundef %23) #12
  br label %24

24:                                               ; preds = %22, %6
  ret void
}

; Function Attrs: nounwind uwtable
define internal ptr @conninfo_init(ptr noundef %0) #0 {
  %2 = alloca ptr, align 8
  %3 = alloca ptr, align 8
  %4 = alloca ptr, align 8
  %5 = alloca ptr, align 8
  %6 = alloca ptr, align 8
  %7 = alloca i32, align 4
  %8 = alloca ptr, align 8
  %9 = alloca i32, align 4
  %10 = alloca i64, align 8
  %11 = alloca ptr, align 8
  %12 = alloca ptr, align 8
  store ptr %0, ptr %3, align 8
  call void @llvm.lifetime.start.p0(i64 8, ptr %4) #12
  call void @llvm.lifetime.start.p0(i64 8, ptr %5) #12
  call void @llvm.lifetime.start.p0(i64 8, ptr %6) #12
  %13 = call noalias ptr @malloc(i64 noundef 2464) #14
  store ptr %13, ptr %4, align 8
  %14 = load ptr, ptr %4, align 8
  %15 = icmp eq ptr %14, null
  br i1 %15, label %16, label %18

16:                                               ; preds = %1
  %17 = load ptr, ptr %3, align 8
  call void (ptr, ptr, ...) @libpq_append_error(ptr noundef %17, ptr noundef @.str)
  store ptr null, ptr %2, align 8
  store i32 1, ptr %7, align 4
  br label %72

18:                                               ; preds = %1
  %19 = load ptr, ptr %4, align 8
  store ptr %19, ptr %5, align 8
  store ptr @PQconninfoOptions, ptr %6, align 8
  br label %20

20:                                               ; preds = %30, %18
  %21 = load ptr, ptr %6, align 8
  %22 = getelementptr inbounds nuw %struct._internalPQconninfoOption, ptr %21, i32 0, i32 0
  %23 = load ptr, ptr %22, align 8
  %24 = icmp ne ptr %23, null
  br i1 %24, label %25, label %33

25:                                               ; preds = %20
  %26 = load ptr, ptr %5, align 8
  %27 = load ptr, ptr %6, align 8
  call void @llvm.memcpy.p0.p0.i64(ptr align 8 %26, ptr align 8 %27, i64 56, i1 false)
  %28 = load ptr, ptr %5, align 8
  %29 = getelementptr inbounds nuw %struct._PQconninfoOption, ptr %28, i32 1
  store ptr %29, ptr %5, align 8
  br label %30

30:                                               ; preds = %25
  %31 = load ptr, ptr %6, align 8
  %32 = getelementptr inbounds nuw %struct._internalPQconninfoOption, ptr %31, i32 1
  store ptr %32, ptr %6, align 8
  br label %20, !llvm.loop !32

33:                                               ; preds = %20
  br label %34

34:                                               ; preds = %33
  call void @llvm.lifetime.start.p0(i64 8, ptr %8) #12
  %35 = load ptr, ptr %5, align 8
  store ptr %35, ptr %8, align 8
  call void @llvm.lifetime.start.p0(i64 4, ptr %9) #12
  store i32 0, ptr %9, align 4
  call void @llvm.lifetime.start.p0(i64 8, ptr %10) #12
  store i64 56, ptr %10, align 8
  %36 = load ptr, ptr %8, align 8
  %37 = ptrtoint ptr %36 to i64
  %38 = and i64 %37, 7
  %39 = icmp eq i64 %38, 0
  br i1 %39, label %40, label %63

40:                                               ; preds = %34
  %41 = load i64, ptr %10, align 8
  %42 = and i64 %41, 7
  %43 = icmp eq i64 %42, 0
  br i1 %43, label %44, label %63

44:                                               ; preds = %40
  %45 = load i32, ptr %9, align 4
  %46 = icmp eq i32 %45, 0
  br i1 %46, label %47, label %63

47:                                               ; preds = %44
  %48 = load i64, ptr %10, align 8
  %49 = icmp ule i64 %48, 1024
  br i1 %49, label %50, label %63

50:                                               ; preds = %47
  call void @llvm.lifetime.start.p0(i64 8, ptr %11) #12
  %51 = load ptr, ptr %8, align 8
  store ptr %51, ptr %11, align 8
  call void @llvm.lifetime.start.p0(i64 8, ptr %12) #12
  %52 = load ptr, ptr %11, align 8
  %53 = load i64, ptr %10, align 8
  %54 = getelementptr inbounds nuw i8, ptr %52, i64 %53
  store ptr %54, ptr %12, align 8
  br label %55

55:                                               ; preds = %59, %50
  %56 = load ptr, ptr %11, align 8
  %57 = load ptr, ptr %12, align 8
  %58 = icmp ult ptr %56, %57
  br i1 %58, label %59, label %62

59:                                               ; preds = %55
  %60 = load ptr, ptr %11, align 8
  %61 = getelementptr inbounds nuw i64, ptr %60, i32 1
  store ptr %61, ptr %11, align 8
  store i64 0, ptr %60, align 8
  br label %55, !llvm.loop !33

62:                                               ; preds = %55
  call void @llvm.lifetime.end.p0(i64 8, ptr %12) #12
  call void @llvm.lifetime.end.p0(i64 8, ptr %11) #12
  br label %68

63:                                               ; preds = %47, %44, %40, %34
  %64 = load ptr, ptr %8, align 8
  %65 = load i32, ptr %9, align 4
  %66 = trunc i32 %65 to i8
  %67 = load i64, ptr %10, align 8
  call void @llvm.memset.p0.i64(ptr align 1 %64, i8 %66, i64 %67, i1 false)
  br label %68

68:                                               ; preds = %63, %62
  call void @llvm.lifetime.end.p0(i64 8, ptr %10) #12
  call void @llvm.lifetime.end.p0(i64 4, ptr %9) #12
  call void @llvm.lifetime.end.p0(i64 8, ptr %8) #12
  br label %69

69:                                               ; preds = %68
  br label %70

70:                                               ; preds = %69
  %71 = load ptr, ptr %4, align 8
  store ptr %71, ptr %2, align 8
  store i32 1, ptr %7, align 4
  br label %72

72:                                               ; preds = %70, %16
  call void @llvm.lifetime.end.p0(i64 8, ptr %6) #12
  call void @llvm.lifetime.end.p0(i64 8, ptr %5) #12
  call void @llvm.lifetime.end.p0(i64 8, ptr %4) #12
  %73 = load ptr, ptr %2, align 8
  ret ptr %73
}

; Function Attrs: nounwind uwtable
define ptr @PQconndefaults() #0 {
  %1 = alloca ptr, align 8
  %2 = alloca %struct.PQExpBufferData, align 8
  %3 = alloca ptr, align 8
  %4 = alloca i32, align 4
  call void @llvm.lifetime.start.p0(i64 24, ptr %2) #12
  call void @llvm.lifetime.start.p0(i64 8, ptr %3) #12
  call void @initPQExpBuffer(ptr noundef %2)
  %5 = getelementptr inbounds nuw %struct.PQExpBufferData, ptr %2, i32 0, i32 2
  %6 = load i64, ptr %5, align 8
  %7 = icmp eq i64 %6, 0
  br i1 %7, label %8, label %9

8:                                                ; preds = %0
  store ptr null, ptr %1, align 8
  store i32 1, ptr %4, align 4
  br label %21

9:                                                ; preds = %0
  %10 = call ptr @conninfo_init(ptr noundef %2)
  store ptr %10, ptr %3, align 8
  %11 = load ptr, ptr %3, align 8
  %12 = icmp ne ptr %11, null
  br i1 %12, label %13, label %19

13:                                               ; preds = %9
  %14 = load ptr, ptr %3, align 8
  %15 = call zeroext i1 @conninfo_add_defaults(ptr noundef %14, ptr noundef null)
  br i1 %15, label %18, label %16

16:                                               ; preds = %13
  %17 = load ptr, ptr %3, align 8
  call void @PQconninfoFree(ptr noundef %17)
  store ptr null, ptr %3, align 8
  br label %18

18:                                               ; preds = %16, %13
  br label %19

19:                                               ; preds = %18, %9
  call void @termPQExpBuffer(ptr noundef %2)
  %20 = load ptr, ptr %3, align 8
  store ptr %20, ptr %1, align 8
  store i32 1, ptr %4, align 4
  br label %21

21:                                               ; preds = %19, %8
  call void @llvm.lifetime.end.p0(i64 8, ptr %3) #12
  call void @llvm.lifetime.end.p0(i64 24, ptr %2) #12
  %22 = load ptr, ptr %1, align 8
  ret ptr %22
}