; Function Attrs: nounwind uwtable
define noundef ptr @PQconndefaults() local_unnamed_addr #0 {
  %1 = alloca %struct.PQExpBufferData, align 8
  call void @llvm.lifetime.start.p0(i64 24, ptr nonnull %1) #25
  call void @initPQExpBuffer(ptr noundef nonnull %1) #25
  %2 = getelementptr inbounds nuw i8, ptr %1, i64 16
  %3 = load i64, ptr %2, align 8
  %4 = icmp eq i64 %3, 0
  br i1 %4, label %18, label %5

5:                                                ; preds = %0
  %6 = call noalias dereferenceable_or_null(2464) ptr @malloc(i64 noundef 2464) #27
  %7 = icmp eq ptr %6, null
  br i1 %7, label %conninfo_init.exit.thread, label %.preheader30.i

conninfo_init.exit.thread:                        ; preds = %5
  call void (ptr, ptr, ...) @libpq_append_error(ptr noundef nonnull %1, ptr noundef nonnull @.str) #25
  br label %17

.preheader30.i:                                   ; preds = %5, %.preheader30.i
  %.02732.i = phi ptr [ %8, %.preheader30.i ], [ %6, %5 ]
  %.02831.i = phi ptr [ %9, %.preheader30.i ], [ @PQconninfoOptions, %5 ]
  call void @llvm.memcpy.p0.p0.i64(ptr noundef nonnull align 8 dereferenceable(56) %.02732.i, ptr noundef nonnull align 8 dereferenceable(56) %.02831.i, i64 56, i1 false)
  %8 = getelementptr inbounds nuw i8, ptr %.02732.i, i64 56
  %9 = getelementptr inbounds nuw i8, ptr %.02831.i, i64 64
  %10 = load ptr, ptr %9, align 8
  %.not.i = icmp eq ptr %10, null
  br i1 %.not.i, label %conninfo_init.exit, label %.preheader30.i, !llvm.loop !5

conninfo_init.exit:                               ; preds = %.preheader30.i
  call void @llvm.memset.p0.i64(ptr noundef nonnull align 1 dereferenceable(56) %8, i8 0, i64 56, i1 false)
  %11 = call fastcc zeroext i1 @conninfo_add_defaults(ptr noundef %6, ptr noundef null)
  br i1 %11, label %17, label %.preheader.i

.preheader.i:                                     ; preds = %conninfo_init.exit
  %12 = load ptr, ptr %6, align 8
  %.not7.i = icmp eq ptr %12, null
  br i1 %.not7.i, label %PQconninfoFree.exit, label %.lr.ph.i

.lr.ph.i:                                         ; preds = %.preheader.i, %.lr.ph.i
  %.08.i = phi ptr [ %15, %.lr.ph.i ], [ %6, %.preheader.i ]
  %13 = getelementptr inbounds nuw i8, ptr %.08.i, i64 24
  %14 = load ptr, ptr %13, align 8
  call void @free(ptr noundef %14) #25
  %15 = getelementptr inbounds nuw i8, ptr %.08.i, i64 56
  %16 = load ptr, ptr %15, align 8
  %.not.i7 = icmp eq ptr %16, null
  br i1 %.not.i7, label %PQconninfoFree.exit, label %.lr.ph.i, !llvm.loop !6

PQconninfoFree.exit:                              ; preds = %.lr.ph.i, %.preheader.i
  call void @free(ptr noundef nonnull %6) #25
  br label %17

17:                                               ; preds = %conninfo_init.exit.thread, %conninfo_init.exit, %PQconninfoFree.exit
  %.0 = phi ptr [ %6, %conninfo_init.exit ], [ null, %PQconninfoFree.exit ], [ null, %conninfo_init.exit.thread ]
  call void @termPQExpBuffer(ptr noundef nonnull %1) #25
  br label %18

18:                                               ; preds = %0, %17
  %.05 = phi ptr [ %.0, %17 ], [ null, %0 ]
  call void @llvm.lifetime.end.p0(i64 24, ptr nonnull %1) #25
  ret ptr %.05
}